target datalayout = "e-m:e-p270:32:32-p271:32:32-p272:64:64-i64:64-i128:128-f80:128-n8:16:32:64-S128"
target triple = "x86_64-pc-linux-gnu"

%struct.rtmsg = type { i8, i8, i8, i8, i8, i8, i8, i8, i32 }
%struct.prte_reachable_netlink_rt_cb_arg = type { i32, i32, i32, i32, ptr }
%struct.prte_reachable_netlink_sk = type { ptr, i32 }
%struct.nlmsghdr = type { i32, i16, i16, i32, i32 }
%struct.timeval = type { i64, i64 }

@.str = private unnamed_addr constant [32 x i8] c"Failed to alloc nl message, %s\0A\00", align 1
@.str.1 = private unnamed_addr constant [53 x i8] c"Failed to send RTM_GETROUTE query message, error %s\0A\00", align 1
@.str.2 = private unnamed_addr constant [45 x i8] c"Failed to setup callback function, error %s\0A\00", align 1
@.str.3 = private unnamed_addr constant [51 x i8] c"Failed to receive netlink reply message, error %s\0A\00", align 1
@.str.4 = private unnamed_addr constant [53 x i8] c"Failed to allocate prte_reachable_netlink_sk struct\0A\00", align 1
@.str.5 = private unnamed_addr constant [30 x i8] c"Failed to allocate nl handle\0A\00", align 1
@.str.6 = private unnamed_addr constant [51 x i8] c"Failed to connnect netlink route socket error: %s\0A\00", align 1

; Function Attrs: nounwind uwtable
define internal i32 @prte_reachable_netlink_set_rcvsk_timer(ptr noundef %0) #0 {
  %2 = alloca ptr, align 8
  %3 = alloca i32, align 4
  %4 = alloca %struct.timeval, align 8
  store ptr %0, ptr %2, align 8, !tbaa !28
  call void @llvm.lifetime.start.p0(i64 4, ptr %3) #6
  store i32 0, ptr %3, align 4, !tbaa !3
  call void @llvm.lifetime.start.p0(i64 16, ptr %4) #6
  %5 = getelementptr inbounds nuw %struct.timeval, ptr %4, i32 0, i32 0
  store i64 1, ptr %5, align 8, !tbaa !49
  %6 = getelementptr inbounds nuw %struct.timeval, ptr %4, i32 0, i32 1
  store i64 0, ptr %6, align 8, !tbaa !52
  %7 = load ptr, ptr %2, align 8, !tbaa !28
  %8 = call i32 @nl_socket_get_fd(ptr noundef %7)
  %9 = call i32 @setsockopt(i32 noundef %8, i32 noundef 1, i32 noundef 20, ptr noundef %4, i32 noundef 16) #6
  store i32 %9, ptr %3, align 4, !tbaa !3
  %10 = load i32, ptr %3, align 4, !tbaa !3
  call void @llvm.lifetime.end.p0(i64 16, ptr %4) #6
  call void @llvm.lifetime.end.p0(i64 4, ptr %3) #6
  ret i32 %10
}

; Function Attrs: nounwind uwtable
define internal void @prte_reachable_netlink_sk_free(ptr noundef %0) #0 {
  %2 = alloca ptr, align 8
  store ptr %0, ptr %2, align 8, !tbaa !10
  %3 = load ptr, ptr %2, align 8, !tbaa !10
  %4 = getelementptr inbounds nuw %struct.prte_reachable_netlink_sk, ptr %3, i32 0, i32 0
  %5 = load ptr, ptr %4, align 8, !tbaa !21
  call void @nl_close(ptr noundef %5)
  %6 = load ptr, ptr %2, align 8, !tbaa !10
  %7 = getelementptr inbounds nuw %struct.prte_reachable_netlink_sk, ptr %6, i32 0, i32 0
  %8 = load ptr, ptr %7, align 8, !tbaa !21
  call void @nl_socket_free(ptr noundef %8)
  %9 = load ptr, ptr %2, align 8, !tbaa !10
  call void @free(ptr noundef %9) #6
  ret void
}

; Function Attrs: nounwind uwtable
define internal i32 @prte_reachable_netlink_send_query(ptr noundef %0, ptr noundef %1, i32 noundef %2, i32 noundef %3) #0 {
  %5 = alloca ptr, align 8
  %6 = alloca ptr, align 8
  %7 = alloca i32, align 4
  %8 = alloca i32, align 4
  %9 = alloca ptr, align 8
  store ptr %0, ptr %5, align 8, !tbaa !10
  store ptr %1, ptr %6, align 8, !tbaa !16
  store i32 %2, ptr %7, align 4, !tbaa !3
  store i32 %3, ptr %8, align 4, !tbaa !3
  call void @llvm.lifetime.start.p0(i64 8, ptr %9) #6
  %10 = load ptr, ptr %6, align 8, !tbaa !16
  %11 = call ptr @nlmsg_hdr(ptr noundef %10)
  store ptr %11, ptr %9, align 8, !tbaa !30
  %12 = load ptr, ptr %5, align 8, !tbaa !10
  %13 = getelementptr inbounds nuw %struct.prte_reachable_netlink_sk, ptr %12, i32 0, i32 0
  %14 = load ptr, ptr %13, align 8, !tbaa !21
  %15 = call i32 @nl_socket_get_local_port(ptr noundef %14)
  %16 = load ptr, ptr %9, align 8, !tbaa !30
  %17 = getelementptr inbounds nuw %struct.nlmsghdr, ptr %16, i32 0, i32 4
  store i32 %15, ptr %17, align 4, !tbaa !32
  %18 = load ptr, ptr %5, align 8, !tbaa !10
  %19 = getelementptr inbounds nuw %struct.prte_reachable_netlink_sk, ptr %18, i32 0, i32 1
  %20 = load i32, ptr %19, align 8, !tbaa !29
  %21 = add i32 %20, 1
  store i32 %21, ptr %19, align 8, !tbaa !29
  %22 = load ptr, ptr %9, align 8, !tbaa !30
  %23 = getelementptr inbounds nuw %struct.nlmsghdr, ptr %22, i32 0, i32 3
  store i32 %21, ptr %23, align 4, !tbaa !35
  %24 = load ptr, ptr %6, align 8, !tbaa !16
  %25 = load i32, ptr %7, align 4, !tbaa !3
  call void @nlmsg_set_proto(ptr noundef %24, i32 noundef %25)
  %26 = load i32, ptr %8, align 4, !tbaa !3
  %27 = trunc i32 %26 to i16
  %28 = load ptr, ptr %9, align 8, !tbaa !30
  %29 = getelementptr inbounds nuw %struct.nlmsghdr, ptr %28, i32 0, i32 2
  store i16 %27, ptr %29, align 2, !tbaa !36
  %30 = load ptr, ptr %5, align 8, !tbaa !10
  %31 = getelementptr inbounds nuw %struct.prte_reachable_netlink_sk, ptr %30, i32 0, i32 0
  %32 = load ptr, ptr %31, align 8, !tbaa !21
  %33 = load ptr, ptr %6, align 8, !tbaa !16
  %34 = call i32 @nl_send(ptr noundef %32, ptr noundef %33)
  call void @llvm.lifetime.end.p0(i64 8, ptr %9) #6
  ret i32 %34
}

; Function Attrs: nounwind uwtable
define internal i32 @prte_reachable_netlink_sk_alloc(ptr noundef %0, i32 noundef %1) #0 {
  %3 = alloca i32, align 4
  %4 = alloca ptr, align 8
  %5 = alloca i32, align 4
  %6 = alloca ptr, align 8
  %7 = alloca ptr, align 8
  %8 = alloca i32, align 4
  %9 = alloca i32, align 4
  store ptr %0, ptr %4, align 8, !tbaa !26
  store i32 %1, ptr %5, align 4, !tbaa !3
  call void @llvm.lifetime.start.p0(i64 8, ptr %6) #6
  call void @llvm.lifetime.start.p0(i64 8, ptr %7) #6
  call void @llvm.lifetime.start.p0(i64 4, ptr %8) #6
  %10 = call noalias ptr @calloc(i64 noundef 1, i64 noundef 16) #7
  store ptr %10, ptr %6, align 8, !tbaa !10
  %11 = load ptr, ptr %6, align 8, !tbaa !10
  %12 = icmp ne ptr %11, null
  br i1 %12, label %14, label %13

13:                                               ; preds = %2
  call void (i32, ptr, ...) @pmix_output(i32 noundef 0, ptr noundef @.str.4)
  store i32 12, ptr %3, align 4
  store i32 1, ptr %9, align 4
  br label %52

14:                                               ; preds = %2
  %15 = call ptr @nl_socket_alloc()
  store ptr %15, ptr %7, align 8, !tbaa !28
  %16 = load ptr, ptr %7, align 8, !tbaa !28
  %17 = icmp ne ptr %16, null
  br i1 %17, label %19, label %18

18:                                               ; preds = %14
  call void (i32, ptr, ...) @pmix_output(i32 noundef 0, ptr noundef @.str.5)
  store i32 12, ptr %8, align 4, !tbaa !3
  br label %49

19:                                               ; preds = %14
  %20 = load ptr, ptr %7, align 8, !tbaa !28
  %21 = load i32, ptr %5, align 4, !tbaa !3
  %22 = call i32 @nl_connect(ptr noundef %20, i32 noundef %21)
  store i32 %22, ptr %8, align 4, !tbaa !3
  %23 = load i32, ptr %8, align 4, !tbaa !3
  %24 = icmp slt i32 %23, 0
  br i1 %24, label %25, label %28

25:                                               ; preds = %19
  %26 = load i32, ptr %8, align 4, !tbaa !3
  %27 = call ptr @nl_geterror(i32 noundef %26)
  call void (i32, ptr, ...) @pmix_output(i32 noundef 0, ptr noundef @.str.6, ptr noundef %27)
  store i32 22, ptr %8, align 4, !tbaa !3
  br label %47

28:                                               ; preds = %19
  %29 = load ptr, ptr %7, align 8, !tbaa !28
  call void @nl_socket_disable_seq_check(ptr noundef %29)
  %30 = load ptr, ptr %7, align 8, !tbaa !28
  %31 = call i32 @prte_reachable_netlink_set_rcvsk_timer(ptr noundef %30)
  store i32 %31, ptr %8, align 4, !tbaa !3
  %32 = load i32, ptr %8, align 4, !tbaa !3
  %33 = icmp slt i32 %32, 0
  br i1 %33, label %34, label %35

34:                                               ; preds = %28
  br label %45

35:                                               ; preds = %28
  %36 = load ptr, ptr %7, align 8, !tbaa !28
  %37 = load ptr, ptr %6, align 8, !tbaa !10
  %38 = getelementptr inbounds nuw %struct.prte_reachable_netlink_sk, ptr %37, i32 0, i32 0
  store ptr %36, ptr %38, align 8, !tbaa !21
  %39 = call i64 @time(ptr noundef null) #6
  %40 = trunc i64 %39 to i32
  %41 = load ptr, ptr %6, align 8, !tbaa !10
  %42 = getelementptr inbounds nuw %struct.prte_reachable_netlink_sk, ptr %41, i32 0, i32 1
  store i32 %40, ptr %42, align 8, !tbaa !29
  %43 = load ptr, ptr %6, align 8, !tbaa !10
  %44 = load ptr, ptr %4, align 8, !tbaa !26
  store ptr %43, ptr %44, align 8, !tbaa !10
  store i32 0, ptr %3, align 4
  store i32 1, ptr %9, align 4
  br label %52

45:                                               ; preds = %34
  %46 = load ptr, ptr %7, align 8, !tbaa !28
  call void @nl_close(ptr noundef %46)
  br label %47

47:                                               ; preds = %45, %25
  %48 = load ptr, ptr %7, align 8, !tbaa !28
  call void @nl_socket_free(ptr noundef %48)
  br label %49

49:                                               ; preds = %47, %18
  %50 = load ptr, ptr %6, align 8, !tbaa !10
  call void @free(ptr noundef %50) #6
  %51 = load i32, ptr %8, align 4, !tbaa !3
  store i32 %51, ptr %3, align 4
  store i32 1, ptr %9, align 4
  br label %52

52:                                               ; preds = %49, %35, %13
  call void @llvm.lifetime.end.p0(i64 4, ptr %8) #6
  call void @llvm.lifetime.end.p0(i64 8, ptr %7) #6
  call void @llvm.lifetime.end.p0(i64 8, ptr %6) #6
  %53 = load i32, ptr %3, align 4
  ret i32 %53
}

; Function Attrs: nounwind uwtable
define i32 @prte_reachable_netlink_rt_lookup(i32 noundef %0, i32 noundef %1, i32 noundef %2, ptr noundef %3) #0 {
  %5 = alloca i32, align 4
  %6 = alloca i32, align 4
  %7 = alloca i32, align 4
  %8 = alloca i32, align 4
  %9 = alloca ptr, align 8
  %10 = alloca ptr, align 8
  %11 = alloca ptr, align 8
  %12 = alloca %struct.rtmsg, align 4
  %13 = alloca %struct.prte_reachable_netlink_rt_cb_arg, align 8
  %14 = alloca i32, align 4
  %15 = alloca i32, align 4
  store i32 %0, ptr %6, align 4, !tbaa !3
  store i32 %1, ptr %7, align 4, !tbaa !3
  store i32 %2, ptr %8, align 4, !tbaa !3
  store ptr %3, ptr %9, align 8, !tbaa !7
  call void @llvm.lifetime.start.p0(i64 8, ptr %10) #6
  call void @llvm.lifetime.start.p0(i64 8, ptr %11) #6
  call void @llvm.lifetime.start.p0(i64 12, ptr %12) #6
  call void @llvm.lifetime.start.p0(i64 24, ptr %13) #6
  call void @llvm.lifetime.start.p0(i64 4, ptr %14) #6
  store ptr null, ptr %10, align 8, !tbaa !10
  %16 = call i32 @prte_reachable_netlink_sk_alloc(ptr noundef %10, i32 noundef 0)
  store i32 %16, ptr %14, align 4, !tbaa !3
  %17 = load i32, ptr %14, align 4, !tbaa !3
  %18 = icmp ne i32 %17, 0
  br i1 %18, label %19, label %21

19:                                               ; preds = %4
  %20 = load i32, ptr %14, align 4, !tbaa !3
  store i32 %20, ptr %5, align 4
  store i32 1, ptr %15, align 4
  br label %94

21:                                               ; preds = %4
  call void @llvm.memset.p0.i64(ptr align 4 %12, i8 0, i64 12, i1 false)
  %22 = getelementptr inbounds nuw %struct.rtmsg, ptr %12, i32 0, i32 0
  store i8 2, ptr %22, align 4, !tbaa !12
  %23 = getelementptr inbounds nuw %struct.rtmsg, ptr %12, i32 0, i32 1
  store i8 32, ptr %23, align 1, !tbaa !14
  %24 = getelementptr inbounds nuw %struct.rtmsg, ptr %12, i32 0, i32 2
  store i8 32, ptr %24, align 2, !tbaa !15
  %25 = call ptr @nlmsg_alloc_simple(i32 noundef 26, i32 noundef 0)
  store ptr %25, ptr %11, align 8, !tbaa !16
  %26 = load ptr, ptr %11, align 8, !tbaa !16
  %27 = icmp ne ptr %26, null
  br i1 %27, label %31, label %28

28:                                               ; preds = %21
  %29 = load i32, ptr %14, align 4, !tbaa !3
  %30 = call ptr @nl_geterror(i32 noundef %29)
  call void (i32, ptr, ...) @pmix_output(i32 noundef 0, ptr noundef @.str, ptr noundef %30)
  store i32 12, ptr %14, align 4, !tbaa !3
  br label %91

31:                                               ; preds = %21
  %32 = load ptr, ptr %11, align 8, !tbaa !16
  %33 = call i32 @nlmsg_append(ptr noundef %32, ptr noundef %12, i64 noundef 12, i32 noundef 4)
  %34 = load ptr, ptr %11, align 8, !tbaa !16
  %35 = load i32, ptr %7, align 4, !tbaa !3
  %36 = call i32 @nla_put_u32(ptr noundef %34, i32 noundef 1, i32 noundef %35)
  %37 = load ptr, ptr %11, align 8, !tbaa !16
  %38 = load i32, ptr %6, align 4, !tbaa !3
  %39 = call i32 @nla_put_u32(ptr noundef %37, i32 noundef 2, i32 noundef %38)
  %40 = load ptr, ptr %10, align 8, !tbaa !10
  %41 = load ptr, ptr %11, align 8, !tbaa !16
  %42 = call i32 @prte_reachable_netlink_send_query(ptr noundef %40, ptr noundef %41, i32 noundef 0, i32 noundef 1)
  store i32 %42, ptr %14, align 4, !tbaa !3
  %43 = load ptr, ptr %11, align 8, !tbaa !16
  call void @nlmsg_free(ptr noundef %43)
  %44 = load i32, ptr %14, align 4, !tbaa !3
  %45 = icmp slt i32 %44, 0
  br i1 %45, label %46, label %49

46:                                               ; preds = %31
  %47 = load i32, ptr %14, align 4, !tbaa !3
  %48 = call ptr @nl_geterror(i32 noundef %47)
  call void (i32, ptr, ...) @pmix_output(i32 noundef 0, ptr noundef @.str.1, ptr noundef %48)
  store i32 22, ptr %14, align 4, !tbaa !3
  br label %91

49:                                               ; preds = %31
  call void @llvm.memset.p0.i64(ptr align 8 %13, i8 0, i64 24, i1 false)
  %50 = load i32, ptr %8, align 4, !tbaa !3
  %51 = getelementptr inbounds nuw %struct.prte_reachable_netlink_rt_cb_arg, ptr %13, i32 0, i32 0
  store i32 %50, ptr %51, align 8, !tbaa !18
  %52 = load ptr, ptr %10, align 8, !tbaa !10
  %53 = getelementptr inbounds nuw %struct.prte_reachable_netlink_rt_cb_arg, ptr %13, i32 0, i32 4
  store ptr %52, ptr %53, align 8, !tbaa !20
  %54 = load ptr, ptr %10, align 8, !tbaa !10
  %55 = getelementptr inbounds nuw %struct.prte_reachable_netlink_sk, ptr %54, i32 0, i32 0
  %56 = load ptr, ptr %55, align 8, !tbaa !21
  %57 = call i32 @nl_socket_modify_cb(ptr noundef %56, i32 noundef 5, i32 noundef 3, ptr noundef @prte_reachable_netlink_rt_raw_parse_cb, ptr noundef %13)
  store i32 %57, ptr %14, align 4, !tbaa !3
  %58 = load i32, ptr %14, align 4, !tbaa !3
  %59 = icmp ne i32 %58, 0
  br i1 %59, label %60, label %63

60:                                               ; preds = %49
  %61 = load i32, ptr %14, align 4, !tbaa !3
  %62 = call ptr @nl_geterror(i32 noundef %61)
  call void (i32, ptr, ...) @pmix_output(i32 noundef 0, ptr noundef @.str.2, ptr noundef %62)
  store i32 22, ptr %14, align 4, !tbaa !3
  br label %91

63:                                               ; preds = %49
  br label %64

64:                                               ; preds = %63
  %65 = load ptr, ptr %10, align 8, !tbaa !10
  %66 = getelementptr inbounds nuw %struct.prte_reachable_netlink_sk, ptr %65, i32 0, i32 0
  %67 = load ptr, ptr %66, align 8, !tbaa !21
  %68 = call i32 @nl_recvmsgs_default(ptr noundef %67)
  store i32 %68, ptr %14, align 4, !tbaa !3
  %69 = load i32, ptr %14, align 4, !tbaa !3
  %70 = icmp slt i32 %69, 0
  br i1 %70, label %71, label %78

71:                                               ; preds = %64
  %72 = load i32, ptr %14, align 4, !tbaa !3
  %73 = call ptr @nl_geterror(i32 noundef %72)
  call void (i32, ptr, ...) @pmix_output(i32 noundef 0, ptr noundef @.str.3, ptr noundef %73)
  %74 = load i32, ptr %14, align 4, !tbaa !3
  %75 = icmp eq i32 %74, -4
  br i1 %75, label %76, label %77

76:                                               ; preds = %71
  store i32 113, ptr %14, align 4, !tbaa !3
  br label %77

77:                                               ; preds = %76, %71
  br label %91

78:                                               ; preds = %64
  br label %79

79:                                               ; preds = %78
  br label %80

80:                                               ; preds = %79
  %81 = getelementptr inbounds nuw %struct.prte_reachable_netlink_rt_cb_arg, ptr %13, i32 0, i32 1
  %82 = load i32, ptr %81, align 4, !tbaa !24
  %83 = icmp ne i32 %82, 0
  br i1 %83, label %84, label %88

84:                                               ; preds = %80
  %85 = getelementptr inbounds nuw %struct.prte_reachable_netlink_rt_cb_arg, ptr %13, i32 0, i32 2
  %86 = load i32, ptr %85, align 8, !tbaa !25
  %87 = load ptr, ptr %9, align 8, !tbaa !7
  store i32 %86, ptr %87, align 4, !tbaa !3
  store i32 0, ptr %14, align 4, !tbaa !3
  br label %90

88:                                               ; preds = %80
  %89 = load ptr, ptr %9, align 8, !tbaa !7
  store i32 0, ptr %89, align 4, !tbaa !3
  store i32 113, ptr %14, align 4, !tbaa !3
  br label %90

90:                                               ; preds = %88, %84
  br label %91

91:                                               ; preds = %90, %77, %60, %46, %28
  %92 = load ptr, ptr %10, align 8, !tbaa !10
  call void @prte_reachable_netlink_sk_free(ptr noundef %92)
  %93 = load i32, ptr %14, align 4, !tbaa !3
  store i32 %93, ptr %5, align 4
  store i32 1, ptr %15, align 4
  br label %94

94:                                               ; preds = %91, %19
  call void @llvm.lifetime.end.p0(i64 4, ptr %14) #6
  call void @llvm.lifetime.end.p0(i64 24, ptr %13) #6
  call void @llvm.lifetime.end.p0(i64 12, ptr %12) #6
  call void @llvm.lifetime.end.p0(i64 8, ptr %11) #6
  call void @llvm.lifetime.end.p0(i64 8, ptr %10) #6
  %95 = load i32, ptr %5, align 4
  ret i32 %95
}