; Function Attrs: nounwind uwtable
define range(i32 -2147483648, 114) i32 @prte_reachable_netlink_rt_lookup(i32 noundef %0, i32 noundef %1, i32 noundef %2, ptr noundef writeonly captures(none) %3) local_unnamed_addr #0 {
  %5 = alloca %struct.timeval, align 8
  %6 = alloca %struct.rtmsg, align 4
  %7 = alloca %struct.prte_reachable_netlink_rt_cb_arg, align 8
  call void @llvm.lifetime.start.p0(i64 12, ptr nonnull %6) #7
  call void @llvm.lifetime.start.p0(i64 24, ptr nonnull %7) #7
  %8 = tail call noalias dereferenceable_or_null(16) ptr @calloc(i64 noundef 1, i64 noundef 16) #8
  %.not.i = icmp eq ptr %8, null
  br i1 %.not.i, label %9, label %10

9:                                                ; preds = %4
  tail call void (i32, ptr, ...) @pmix_output(i32 noundef 0, ptr noundef nonnull @.str.4) #7
  br label %prte_reachable_netlink_sk_alloc.exit.thread

10:                                               ; preds = %4
  %11 = tail call ptr @nl_socket_alloc() #7
  %.not23.i = icmp eq ptr %11, null
  br i1 %.not23.i, label %12, label %13

12:                                               ; preds = %10
  tail call void (i32, ptr, ...) @pmix_output(i32 noundef 0, ptr noundef nonnull @.str.5) #7
  br label %25

13:                                               ; preds = %10
  %14 = tail call i32 @nl_connect(ptr noundef nonnull %11, i32 noundef 0) #7
  %15 = icmp slt i32 %14, 0
  br i1 %15, label %16, label %18

16:                                               ; preds = %13
  %17 = tail call ptr @nl_geterror(i32 noundef %14) #7
  tail call void (i32, ptr, ...) @pmix_output(i32 noundef 0, ptr noundef nonnull @.str.6, ptr noundef %17) #7
  br label %24

18:                                               ; preds = %13
  tail call void @nl_socket_disable_seq_check(ptr noundef nonnull %11) #7
  call void @llvm.lifetime.start.p0(i64 16, ptr nonnull %5) #7
  store i64 1, ptr %5, align 8, !tbaa !3
  %19 = getelementptr inbounds nuw i8, ptr %5, i64 8
  store i64 0, ptr %19, align 8, !tbaa !8
  %20 = tail call i32 @nl_socket_get_fd(ptr noundef nonnull %11) #7
  %21 = call i32 @setsockopt(i32 noundef %20, i32 noundef 1, i32 noundef 20, ptr noundef nonnull %5, i32 noundef 16) #7
  call void @llvm.lifetime.end.p0(i64 16, ptr nonnull %5) #7
  %22 = icmp slt i32 %21, 0
  br i1 %22, label %23, label %26

23:                                               ; preds = %18
  call void @nl_close(ptr noundef nonnull %11) #7
  br label %24

24:                                               ; preds = %23, %16
  %.1.i = phi i32 [ 22, %16 ], [ %21, %23 ]
  call void @nl_socket_free(ptr noundef nonnull %11) #7
  br label %25

25:                                               ; preds = %24, %12
  %.0.i = phi i32 [ %.1.i, %24 ], [ 12, %12 ]
  call void @free(ptr noundef nonnull %8) #7
  br label %prte_reachable_netlink_sk_alloc.exit.thread

26:                                               ; preds = %18
  store ptr %11, ptr %8, align 8, !tbaa !9
  %27 = call i64 @time(ptr noundef null) #7
  %28 = trunc i64 %27 to i32
  %29 = getelementptr inbounds nuw i8, ptr %8, i64 8
  store i32 %28, ptr %29, align 8, !tbaa !14
  call void @llvm.memset.p0.i64(ptr noundef nonnull align 4 dereferenceable(12) %6, i8 0, i64 12, i1 false)
  store i8 2, ptr %6, align 4, !tbaa !15
  %30 = getelementptr inbounds nuw i8, ptr %6, i64 1
  store i8 32, ptr %30, align 1, !tbaa !17
  %31 = getelementptr inbounds nuw i8, ptr %6, i64 2
  store i8 32, ptr %31, align 2, !tbaa !18
  %32 = call ptr @nlmsg_alloc_simple(i32 noundef 26, i32 noundef 0) #7
  %.not28 = icmp eq ptr %32, null
  br i1 %.not28, label %33, label %35

33:                                               ; preds = %26
  %34 = call ptr @nl_geterror(i32 noundef 0) #7
  call void (i32, ptr, ...) @pmix_output(i32 noundef 0, ptr noundef nonnull @.str, ptr noundef %34) #7
  br label %68

35:                                               ; preds = %26
  %36 = call i32 @nlmsg_append(ptr noundef nonnull %32, ptr noundef nonnull %6, i64 noundef 12, i32 noundef 4) #7
  %37 = call i32 @nla_put_u32(ptr noundef nonnull %32, i32 noundef 1, i32 noundef %1) #7
  %38 = call i32 @nla_put_u32(ptr noundef nonnull %32, i32 noundef 2, i32 noundef %0) #7
  %39 = call ptr @nlmsg_hdr(ptr noundef nonnull %32) #7
  %40 = call i32 @nl_socket_get_local_port(ptr noundef nonnull %11) #7
  %41 = getelementptr inbounds nuw i8, ptr %39, i64 12
  store i32 %40, ptr %41, align 4, !tbaa !19
  %42 = add i32 %28, 1
  store i32 %42, ptr %29, align 8, !tbaa !14
  %43 = getelementptr inbounds nuw i8, ptr %39, i64 8
  store i32 %42, ptr %43, align 4, !tbaa !22
  call void @nlmsg_set_proto(ptr noundef nonnull %32, i32 noundef 0) #7
  %44 = getelementptr inbounds nuw i8, ptr %39, i64 6
  store i16 1, ptr %44, align 2, !tbaa !23
  %45 = call i32 @nl_send(ptr noundef nonnull %11, ptr noundef nonnull %32) #7
  call void @nlmsg_free(ptr noundef nonnull %32) #7
  %46 = icmp slt i32 %45, 0
  br i1 %46, label %47, label %49

47:                                               ; preds = %35
  %48 = call ptr @nl_geterror(i32 noundef %45) #7
  call void (i32, ptr, ...) @pmix_output(i32 noundef 0, ptr noundef nonnull @.str.1, ptr noundef %48) #7
  br label %68

49:                                               ; preds = %35
  call void @llvm.memset.p0.i64(ptr noundef nonnull align 8 dereferenceable(24) %7, i8 0, i64 16, i1 false)
  store i32 %2, ptr %7, align 8, !tbaa !24
  %50 = getelementptr inbounds nuw i8, ptr %7, i64 16
  store ptr %8, ptr %50, align 8, !tbaa !27
  %51 = call i32 @nl_socket_modify_cb(ptr noundef nonnull %11, i32 noundef 5, i32 noundef 3, ptr noundef nonnull @prte_reachable_netlink_rt_raw_parse_cb, ptr noundef nonnull %7) #7
  %.not29 = icmp eq i32 %51, 0
  br i1 %.not29, label %54, label %52

52:                                               ; preds = %49
  %53 = call ptr @nl_geterror(i32 noundef %51) #7
  call void (i32, ptr, ...) @pmix_output(i32 noundef 0, ptr noundef nonnull @.str.2, ptr noundef %53) #7
  br label %68

54:                                               ; preds = %49
  %55 = load ptr, ptr %8, align 8, !tbaa !9
  %56 = call i32 @nl_recvmsgs_default(ptr noundef %55) #7
  %57 = icmp slt i32 %56, 0
  br i1 %57, label %58, label %61

58:                                               ; preds = %54
  %59 = call ptr @nl_geterror(i32 noundef %56) #7
  call void (i32, ptr, ...) @pmix_output(i32 noundef 0, ptr noundef nonnull @.str.3, ptr noundef %59) #7
  %60 = icmp eq i32 %56, -4
  %spec.store.select = select i1 %60, i32 113, i32 %56
  br label %68

61:                                               ; preds = %54
  %62 = getelementptr inbounds nuw i8, ptr %7, i64 4
  %63 = load i32, ptr %62, align 4, !tbaa !28
  %.not30 = icmp eq i32 %63, 0
  br i1 %.not30, label %67, label %64

64:                                               ; preds = %61
  %65 = getelementptr inbounds nuw i8, ptr %7, i64 8
  %66 = load i32, ptr %65, align 8, !tbaa !29
  store i32 %66, ptr %3, align 4, !tbaa !30
  br label %68

67:                                               ; preds = %61
  store i32 0, ptr %3, align 4, !tbaa !30
  br label %68

68:                                               ; preds = %64, %67, %58, %52, %47, %33
  %.0 = phi i32 [ 22, %47 ], [ 22, %52 ], [ %spec.store.select, %58 ], [ 0, %64 ], [ 113, %67 ], [ 12, %33 ]
  %69 = load ptr, ptr %8, align 8, !tbaa !9
  call void @nl_close(ptr noundef %69) #7
  %70 = load ptr, ptr %8, align 8, !tbaa !9
  call void @nl_socket_free(ptr noundef %70) #7
  call void @free(ptr noundef nonnull %8) #7
  br label %prte_reachable_netlink_sk_alloc.exit.thread

prte_reachable_netlink_sk_alloc.exit.thread:      ; preds = %9, %25, %68
  %.022 = phi i32 [ %.0, %68 ], [ 12, %9 ], [ %.0.i, %25 ]
  call void @llvm.lifetime.end.p0(i64 24, ptr nonnull %7) #7
  call void @llvm.lifetime.end.p0(i64 12, ptr nonnull %6) #7
  ret i32 %.022
}